target datalayout = "e-m:e-p270:32:32-p271:32:32-p272:64:64-i64:64-f80:128-n8:16:32:64-S128"
target triple = "x86_64-pc-linux-gnu"

%struct.anon = type { i32, i32, i32, i32 }

@.str = private unnamed_addr constant [3 x i8] c"%d\00", align 1
@.str.1 = private unnamed_addr constant [9 x i8] c"%d %d %d\00", align 1
@.str.2 = private unnamed_addr constant [7 x i8] c"%d %d\0A\00", align 1

; Function Attrs: noinline nounwind uwtable
define dso_local i32 @main() #0 {
  %1 = alloca i32, align 4
  %2 = alloca [100000 x %struct.anon], align 16
  %3 = alloca i32, align 4
  %4 = alloca i32, align 4
  %5 = alloca i32, align 4
  %6 = alloca i32, align 4
  %7 = alloca i32, align 4
  %8 = alloca i32, align 4
  %9 = alloca i32, align 4
  %10 = alloca i32, align 4
  %11 = alloca i32, align 4
  %12 = alloca i32, align 4
  store i32 0, i32* %1, align 4
  %13 = call i32 (i8*, ...) @__isoc99_scanf(i8* getelementptr inbounds ([3 x i8], [3 x i8]* @.str, i64 0, i64 0), i32* %3)
  %14 = getelementptr inbounds [100000 x %struct.anon], [100000 x %struct.anon]* %2, i64 0, i64 0
  %15 = getelementptr inbounds %struct.anon, %struct.anon* %14, i32 0, i32 0
  %16 = getelementptr inbounds [100000 x %struct.anon], [100000 x %struct.anon]* %2, i64 0, i64 0
  %17 = getelementptr inbounds %struct.anon, %struct.anon* %16, i32 0, i32 1
  %18 = getelementptr inbounds [100000 x %struct.anon], [100000 x %struct.anon]* %2, i64 0, i64 0
  %19 = getelementptr inbounds %struct.anon, %struct.anon* %18, i32 0, i32 2
  %20 = call i32 (i8*, ...) @__isoc99_scanf(i8* getelementptr inbounds ([9 x i8], [9 x i8]* @.str.1, i64 0, i64 0), i32* %15, i32* %17, i32* %19)
  %21 = getelementptr inbounds [100000 x %struct.anon], [100000 x %struct.anon]* %2, i64 0, i64 0
  %22 = getelementptr inbounds %struct.anon, %struct.anon* %21, i32 0, i32 1
  %23 = load i32, i32* %22, align 4
  %24 = getelementptr inbounds [100000 x %struct.anon], [100000 x %struct.anon]* %2, i64 0, i64 0
  %25 = getelementptr inbounds %struct.anon, %struct.anon* %24, i32 0, i32 2
  %26 = load i32, i32* %25, align 8
  %27 = add nsw i32 %23, %26
  store i32 %27, i32* %4, align 4
  store i32 0, i32* %10, align 4
  br label %28

28:                                               ; preds = %76, %0
  %29 = load i32, i32* %10, align 4
  %30 = load i32, i32* %3, align 4
  %31 = icmp slt i32 %29, %30
  br i1 %31, label %32, label %79

32:                                               ; preds = %28
  %33 = load i32, i32* %10, align 4
  %34 = sext i32 %33 to i64
  %35 = getelementptr inbounds [100000 x %struct.anon], [100000 x %struct.anon]* %2, i64 0, i64 %34
  %36 = getelementptr inbounds %struct.anon, %struct.anon* %35, i32 0, i32 0
  %37 = load i32, i32* %10, align 4
  %38 = sext i32 %37 to i64
  %39 = getelementptr inbounds [100000 x %struct.anon], [100000 x %struct.anon]* %2, i64 0, i64 %38
  %40 = getelementptr inbounds %struct.anon, %struct.anon* %39, i32 0, i32 1
  %41 = load i32, i32* %10, align 4
  %42 = sext i32 %41 to i64
  %43 = getelementptr inbounds [100000 x %struct.anon], [100000 x %struct.anon]* %2, i64 0, i64 %42
  %44 = getelementptr inbounds %struct.anon, %struct.anon* %43, i32 0, i32 2
  %45 = call i32 (i8*, ...) @__isoc99_scanf(i8* getelementptr inbounds ([9 x i8], [9 x i8]* @.str.1, i64 0, i64 0), i32* %36, i32* %40, i32* %44)
  %46 = load i32, i32* %10, align 4
  %47 = sext i32 %46 to i64
  %48 = getelementptr inbounds [100000 x %struct.anon], [100000 x %struct.anon]* %2, i64 0, i64 %47
  %49 = getelementptr inbounds %struct.anon, %struct.anon* %48, i32 0, i32 1
  %50 = load i32, i32* %49, align 4
  %51 = load i32, i32* %10, align 4
  %52 = sext i32 %51 to i64
  %53 = getelementptr inbounds [100000 x %struct.anon], [100000 x %struct.anon]* %2, i64 0, i64 %52
  %54 = getelementptr inbounds %struct.anon, %struct.anon* %53, i32 0, i32 2
  %55 = load i32, i32* %54, align 8
  %56 = add nsw i32 %50, %55
  %57 = load i32, i32* %10, align 4
  %58 = sext i32 %57 to i64
  %59 = getelementptr inbounds [100000 x %struct.anon], [100000 x %struct.anon]* %2, i64 0, i64 %58
  %60 = getelementptr inbounds %struct.anon, %struct.anon* %59, i32 0, i32 3
  store i32 %56, i32* %60, align 4
  %61 = load i32, i32* %10, align 4
  %62 = sext i32 %61 to i64
  %63 = getelementptr inbounds [100000 x %struct.anon], [100000 x %struct.anon]* %2, i64 0, i64 %62
  %64 = getelementptr inbounds %struct.anon, %struct.anon* %63, i32 0, i32 3
  %65 = load i32, i32* %64, align 4
  %66 = load i32, i32* %4, align 4
  %67 = icmp sgt i32 %65, %66
  br i1 %67, label %68, label %75

68:                                               ; preds = %32
  %69 = load i32, i32* %10, align 4
  %70 = sext i32 %69 to i64
  %71 = getelementptr inbounds [100000 x %struct.anon], [100000 x %struct.anon]* %2, i64 0, i64 %70
  %72 = getelementptr inbounds %struct.anon, %struct.anon* %71, i32 0, i32 3
  %73 = load i32, i32* %72, align 4
  store i32 %73, i32* %4, align 4
  %74 = load i32, i32* %10, align 4
  store i32 %74, i32* %7, align 4
  br label %75

75:                                               ; preds = %68, %32
  br label %76

76:                                               ; preds = %75
  %77 = load i32, i32* %10, align 4
  %78 = add nsw i32 %77, 1
  store i32 %78, i32* %10, align 4
  br label %28

79:                                               ; preds = %28
  %80 = load i32, i32* %7, align 4
  %81 = sext i32 %80 to i64
  %82 = getelementptr inbounds [100000 x %struct.anon], [100000 x %struct.anon]* %2, i64 0, i64 %81
  %83 = getelementptr inbounds %struct.anon, %struct.anon* %82, i32 0, i32 0
  %84 = load i32, i32* %83, align 16
  %85 = load i32, i32* %4, align 4
  %86 = call i32 (i8*, ...) @printf(i8* getelementptr inbounds ([7 x i8], [7 x i8]* @.str.2, i64 0, i64 0), i32 %84, i32 %85)
  %87 = load i32, i32* %7, align 4
  %88 = sext i32 %87 to i64
  %89 = getelementptr inbounds [100000 x %struct.anon], [100000 x %struct.anon]* %2, i64 0, i64 %88
  %90 = getelementptr inbounds %struct.anon, %struct.anon* %89, i32 0, i32 3
  store i32 0, i32* %90, align 4
  %91 = load i32, i32* %7, align 4
  %92 = sext i32 %91 to i64
  %93 = getelementptr inbounds [100000 x %struct.anon], [100000 x %struct.anon]* %2, i64 0, i64 %92
  %94 = getelementptr inbounds %struct.anon, %struct.anon* %93, i32 0, i32 2
  store i32 0, i32* %94, align 8
  %95 = load i32, i32* %7, align 4
  %96 = sext i32 %95 to i64
  %97 = getelementptr inbounds [100000 x %struct.anon], [100000 x %struct.anon]* %2, i64 0, i64 %96
  %98 = getelementptr inbounds %struct.anon, %struct.anon* %97, i32 0, i32 1
  store i32 0, i32* %98, align 4
  %99 = getelementptr inbounds [100000 x %struct.anon], [100000 x %struct.anon]* %2, i64 0, i64 0
  %100 = getelementptr inbounds %struct.anon, %struct.anon* %99, i32 0, i32 0
  %101 = getelementptr inbounds [100000 x %struct.anon], [100000 x %struct.anon]* %2, i64 0, i64 0
  %102 = getelementptr inbounds %struct.anon, %struct.anon* %101, i32 0, i32 1
  %103 = getelementptr inbounds [100000 x %struct.anon], [100000 x %struct.anon]* %2, i64 0, i64 0
  %104 = getelementptr inbounds %struct.anon, %struct.anon* %103, i32 0, i32 2
  %105 = call i32 (i8*, ...) @__isoc99_scanf(i8* getelementptr inbounds ([9 x i8], [9 x i8]* @.str.1, i64 0, i64 0), i32* %100, i32* %102, i32* %104)
  %106 = getelementptr inbounds [100000 x %struct.anon], [100000 x %struct.anon]* %2, i64 0, i64 0
  %107 = getelementptr inbounds %struct.anon, %struct.anon* %106, i32 0, i32 3
  %108 = load i32, i32* %107, align 4
  store i32 %108, i32* %5, align 4
  store i32 0, i32* %11, align 4
  br label %109

109:                                              ; preds = %157, %79
  %110 = load i32, i32* %11, align 4
  %111 = load i32, i32* %3, align 4
  %112 = icmp slt i32 %110, %111
  br i1 %112, label %113, label %160

113:                                              ; preds = %109
  %114 = load i32, i32* %11, align 4
  %115 = sext i32 %114 to i64
  %116 = getelementptr inbounds [100000 x %struct.anon], [100000 x %struct.anon]* %2, i64 0, i64 %115
  %117 = getelementptr inbounds %struct.anon, %struct.anon* %116, i32 0, i32 0
  %118 = load i32, i32* %11, align 4
  %119 = sext i32 %118 to i64
  %120 = getelementptr inbounds [100000 x %struct.anon], [100000 x %struct.anon]* %2, i64 0, i64 %119
  %121 = getelementptr inbounds %struct.anon, %struct.anon* %120, i32 0, i32 1
  %122 = load i32, i32* %11, align 4
  %123 = sext i32 %122 to i64
  %124 = getelementptr inbounds [100000 x %struct.anon], [100000 x %struct.anon]* %2, i64 0, i64 %123
  %125 = getelementptr inbounds %struct.anon, %struct.anon* %124, i32 0, i32 2
  %126 = call i32 (i8*, ...) @__isoc99_scanf(i8* getelementptr inbounds ([9 x i8], [9 x i8]* @.str.1, i64 0, i64 0), i32* %117, i32* %121, i32* %125)
  %127 = load i32, i32* %11, align 4
  %128 = sext i32 %127 to i64
  %129 = getelementptr inbounds [100000 x %struct.anon], [100000 x %struct.anon]* %2, i64 0, i64 %128
  %130 = getelementptr inbounds %struct.anon, %struct.anon* %129, i32 0, i32 1
  %131 = load i32, i32* %130, align 4
  %132 = load i32, i32* %11, align 4
  %133 = sext i32 %132 to i64
  %134 = getelementptr inbounds [100000 x %struct.anon], [100000 x %struct.anon]* %2, i64 0, i64 %133
  %135 = getelementptr inbounds %struct.anon, %struct.anon* %134, i32 0, i32 2
  %136 = load i32, i32* %135, align 8
  %137 = add nsw i32 %131, %136
  %138 = load i32, i32* %11, align 4
  %139 = sext i32 %138 to i64
  %140 = getelementptr inbounds [100000 x %struct.anon], [100000 x %struct.anon]* %2, i64 0, i64 %139
  %141 = getelementptr inbounds %struct.anon, %struct.anon* %140, i32 0, i32 3
  store i32 %137, i32* %141, align 4
  %142 = load i32, i32* %11, align 4
  %143 = sext i32 %142 to i64
  %144 = getelementptr inbounds [100000 x %struct.anon], [100000 x %struct.anon]* %2, i64 0, i64 %143
  %145 = getelementptr inbounds %struct.anon, %struct.anon* %144, i32 0, i32 3
  %146 = load i32, i32* %145, align 4
  %147 = load i32, i32* %5, align 4
  %148 = icmp sgt i32 %146, %147
  br i1 %148, label %149, label %156

149:                                              ; preds = %113
  %150 = load i32, i32* %11, align 4
  %151 = sext i32 %150 to i64
  %152 = getelementptr inbounds [100000 x %struct.anon], [100000 x %struct.anon]* %2, i64 0, i64 %151
  %153 = getelementptr inbounds %struct.anon, %struct.anon* %152, i32 0, i32 3
  %154 = load i32, i32* %153, align 4
  store i32 %154, i32* %5, align 4
  %155 = load i32, i32* %11, align 4
  store i32 %155, i32* %8, align 4
  br label %156

156:                                              ; preds = %149, %113
  br label %157

157:                                              ; preds = %156
  %158 = load i32, i32* %11, align 4
  %159 = add nsw i32 %158, 1
  store i32 %159, i32* %11, align 4
  br label %109

160:                                              ; preds = %109
  %161 = load i32, i32* %8, align 4
  %162 = sext i32 %161 to i64
  %163 = getelementptr inbounds [100000 x %struct.anon], [100000 x %struct.anon]* %2, i64 0, i64 %162
  %164 = getelementptr inbounds %struct.anon, %struct.anon* %163, i32 0, i32 0
  %165 = load i32, i32* %164, align 16
  %166 = load i32, i32* %5, align 4
  %167 = call i32 (i8*, ...) @printf(i8* getelementptr inbounds ([7 x i8], [7 x i8]* @.str.2, i64 0, i64 0), i32 %165, i32 %166)
  %168 = load i32, i32* %8, align 4
  %169 = sext i32 %168 to i64
  %170 = getelementptr inbounds [100000 x %struct.anon], [100000 x %struct.anon]* %2, i64 0, i64 %169
  %171 = getelementptr inbounds %struct.anon, %struct.anon* %170, i32 0, i32 3
  store i32 0, i32* %171, align 4
  %172 = load i32, i32* %8, align 4
  %173 = sext i32 %172 to i64
  %174 = getelementptr inbounds [100000 x %struct.anon], [100000 x %struct.anon]* %2, i64 0, i64 %173
  %175 = getelementptr inbounds %struct.anon, %struct.anon* %174, i32 0, i32 2
  store i32 0, i32* %175, align 8
  %176 = load i32, i32* %8, align 4
  %177 = sext i32 %176 to i64
  %178 = getelementptr inbounds [100000 x %struct.anon], [100000 x %struct.anon]* %2, i64 0, i64 %177
  %179 = getelementptr inbounds %struct.anon, %struct.anon* %178, i32 0, i32 1
  store i32 0, i32* %179, align 4
  %180 = getelementptr inbounds [100000 x %struct.anon], [100000 x %struct.anon]* %2, i64 0, i64 0
  %181 = getelementptr inbounds %struct.anon, %struct.anon* %180, i32 0, i32 0
  %182 = getelementptr inbounds [100000 x %struct.anon], [100000 x %struct.anon]* %2, i64 0, i64 0
  %183 = getelementptr inbounds %struct.anon, %struct.anon* %182, i32 0, i32 1
  %184 = getelementptr inbounds [100000 x %struct.anon], [100000 x %struct.anon]* %2, i64 0, i64 0
  %185 = getelementptr inbounds %struct.anon, %struct.anon* %184, i32 0, i32 2
  %186 = call i32 (i8*, ...) @__isoc99_scanf(i8* getelementptr inbounds ([9 x i8], [9 x i8]* @.str.1, i64 0, i64 0), i32* %181, i32* %183, i32* %185)
  %187 = getelementptr inbounds [100000 x %struct.anon], [100000 x %struct.anon]* %2, i64 0, i64 0
  %188 = getelementptr inbounds %struct.anon, %struct.anon* %187, i32 0, i32 3
  %189 = load i32, i32* %188, align 4
  store i32 %189, i32* %6, align 4
  store i32 0, i32* %12, align 4
  br label %190

190:                                              ; preds = %238, %160
  %191 = load i32, i32* %12, align 4
  %192 = load i32, i32* %3, align 4
  %193 = icmp slt i32 %191, %192
  br i1 %193, label %194, label %241

194:                                              ; preds = %190
  %195 = load i32, i32* %12, align 4
  %196 = sext i32 %195 to i64
  %197 = getelementptr inbounds [100000 x %struct.anon], [100000 x %struct.anon]* %2, i64 0, i64 %196
  %198 = getelementptr inbounds %struct.anon, %struct.anon* %197, i32 0, i32 0
  %199 = load i32, i32* %12, align 4
  %200 = sext i32 %199 to i64
  %201 = getelementptr inbounds [100000 x %struct.anon], [100000 x %struct.anon]* %2, i64 0, i64 %200
  %202 = getelementptr inbounds %struct.anon, %struct.anon* %201, i32 0, i32 1
  %203 = load i32, i32* %12, align 4
  %204 = sext i32 %203 to i64
  %205 = getelementptr inbounds [100000 x %struct.anon], [100000 x %struct.anon]* %2, i64 0, i64 %204
  %206 = getelementptr inbounds %struct.anon, %struct.anon* %205, i32 0, i32 2
  %207 = call i32 (i8*, ...) @__isoc99_scanf(i8* getelementptr inbounds ([9 x i8], [9 x i8]* @.str.1, i64 0, i64 0), i32* %198, i32* %202, i32* %206)
  %208 = load i32, i32* %12, align 4
  %209 = sext i32 %208 to i64
  %210 = getelementptr inbounds [100000 x %struct.anon], [100000 x %struct.anon]* %2, i64 0, i64 %209
  %211 = getelementptr inbounds %struct.anon, %struct.anon* %210, i32 0, i32 1
  %212 = load i32, i32* %211, align 4
  %213 = load i32, i32* %12, align 4
  %214 = sext i32 %213 to i64
  %215 = getelementptr inbounds [100000 x %struct.anon], [100000 x %struct.anon]* %2, i64 0, i64 %214
  %216 = getelementptr inbounds %struct.anon, %struct.anon* %215, i32 0, i32 2
  %217 = load i32, i32* %216, align 8
  %218 = add nsw i32 %212, %217
  %219 = load i32, i32* %12, align 4
  %220 = sext i32 %219 to i64
  %221 = getelementptr inbounds [100000 x %struct.anon], [100000 x %struct.anon]* %2, i64 0, i64 %220
  %222 = getelementptr inbounds %struct.anon, %struct.anon* %221, i32 0, i32 3
  store i32 %218, i32* %222, align 4
  %223 = load i32, i32* %12, align 4
  %224 = sext i32 %223 to i64
  %225 = getelementptr inbounds [100000 x %struct.anon], [100000 x %struct.anon]* %2, i64 0, i64 %224
  %226 = getelementptr inbounds %struct.anon, %struct.anon* %225, i32 0, i32 3
  %227 = load i32, i32* %226, align 4
  %228 = load i32, i32* %6, align 4
  %229 = icmp sgt i32 %227, %228
  br i1 %229, label %230, label %237

230:                                              ; preds = %194
  %231 = load i32, i32* %12, align 4
  %232 = sext i32 %231 to i64
  %233 = getelementptr inbounds [100000 x %struct.anon], [100000 x %struct.anon]* %2, i64 0, i64 %232
  %234 = getelementptr inbounds %struct.anon, %struct.anon* %233, i32 0, i32 3
  %235 = load i32, i32* %234, align 4
  store i32 %235, i32* %6, align 4
  %236 = load i32, i32* %12, align 4
  store i32 %236, i32* %9, align 4
  br label %237

237:                                              ; preds = %230, %194
  br label %238

238:                                              ; preds = %237
  %239 = load i32, i32* %12, align 4
  %240 = add nsw i32 %239, 1
  store i32 %240, i32* %12, align 4
  br label %190

241:                                              ; preds = %190
  %242 = load i32, i32* %9, align 4
  %243 = sext i32 %242 to i64
  %244 = getelementptr inbounds [100000 x %struct.anon], [100000 x %struct.anon]* %2, i64 0, i64 %243
  %245 = getelementptr inbounds %struct.anon, %struct.anon* %244, i32 0, i32 0
  %246 = load i32, i32* %245, align 16
  %247 = load i32, i32* %6, align 4
  %248 = call i32 (i8*, ...) @printf(i8* getelementptr inbounds ([7 x i8], [7 x i8]* @.str.2, i64 0, i64 0), i32 %246, i32 %247)
  ret i32 0
}